; Function Attrs: nounwind uwtable
define dso_local i64 @cons_helpers_get_def_mem_per_gpu(ptr noundef %0) local_unnamed_addr #0 {
  %.not = icmp eq ptr %0, null
  br i1 %.not, label %12, label %2

2:                                                ; preds = %1
  %3 = tail call ptr @slurm_list_iterator_create(ptr noundef nonnull %0) #3
  br label %4

4:                                                ; preds = %6, %2
  %5 = tail call ptr @slurm_list_next(ptr noundef %3) #3
  %.not11 = icmp eq ptr %5, null
  br i1 %.not11, label %.loopexit, label %6

6:                                                ; preds = %4
  %7 = load i16, ptr %5, align 8
  %8 = icmp eq i16 %7, 2
  br i1 %8, label %9, label %4, !llvm.loop !11

9:                                                ; preds = %6
  %10 = getelementptr inbounds nuw i8, ptr %5, i64 8
  %11 = load i64, ptr %10, align 8
  br label %.loopexit

.loopexit:                                        ; preds = %4, %9
  %.08 = phi i64 [ %11, %9 ], [ -2, %4 ]
  tail call void @slurm_list_iterator_destroy(ptr noundef %3) #3
  br label %12

12:                                               ; preds = %1, %.loopexit
  %.0 = phi i64 [ %.08, %.loopexit ], [ -2, %1 ]
  ret i64 %.0
}